; ModuleID = '22/958.c'
source_filename = "22/958.c"
target datalayout = "e-m:e-p270:32:32-p271:32:32-p272:64:64-i64:64-f80:128-n8:16:32:64-S128"
target triple = "x86_64-pc-linux-gnu"

@.str = private unnamed_addr constant [5 x i8] c"%d%c\00", align 1
@.str.1 = private unnamed_addr constant [3 x i8] c"No\00", align 1
@.str.2 = private unnamed_addr constant [3 x i8] c"%d\00", align 1

; Function Attrs: noinline nounwind uwtable
define dso_local i32 @main() #0 {
  %1 = alloca i32, align 4
  %2 = alloca i32, align 4
  %3 = alloca i32, align 4
  %4 = alloca i32, align 4
  %5 = alloca [200 x i32], align 16
  %6 = alloca i32, align 4
  %7 = alloca i32, align 4
  %8 = alloca i8, align 1
  store i32 0, i32* %1, align 4
  store i32 1, i32* %3, align 4
  br label %9

9:                                                ; preds = %13, %0
  %10 = load i8, i8* %8, align 1
  %11 = sext i8 %10 to i32
  %12 = icmp ne i32 %11, 10
  br i1 %12, label %13, label %20

13:                                               ; preds = %9
  %14 = load i32, i32* %3, align 4
  %15 = sext i32 %14 to i64
  %16 = getelementptr inbounds [200 x i32], [200 x i32]* %5, i64 0, i64 %15
  %17 = call i32 (i8*, ...) @__isoc99_scanf(i8* getelementptr inbounds ([5 x i8], [5 x i8]* @.str, i64 0, i64 0), i32* %16, i8* %8)
  %18 = load i32, i32* %3, align 4
  %19 = add nsw i32 %18, 1
  store i32 %19, i32* %3, align 4
  br label %9

20:                                               ; preds = %9
  store i32 -10000, i32* %2, align 4
  store i32 -10000, i32* %7, align 4
  %21 = load i32, i32* %3, align 4
  %22 = sub nsw i32 %21, 1
  %23 = icmp eq i32 %22, 1
  br i1 %23, label %24, label %26

24:                                               ; preds = %20
  %25 = call i32 (i8*, ...) @printf(i8* getelementptr inbounds ([3 x i8], [3 x i8]* @.str.1, i64 0, i64 0))
  br label %97

26:                                               ; preds = %20
  store i32 1, i32* %4, align 4
  br label %27

27:                                               ; preds = %44, %26
  %28 = load i32, i32* %4, align 4
  %29 = load i32, i32* %3, align 4
  %30 = icmp slt i32 %28, %29
  br i1 %30, label %31, label %47

31:                                               ; preds = %27
  %32 = load i32, i32* %2, align 4
  %33 = load i32, i32* %4, align 4
  %34 = sext i32 %33 to i64
  %35 = getelementptr inbounds [200 x i32], [200 x i32]* %5, i64 0, i64 %34
  %36 = load i32, i32* %35, align 4
  %37 = icmp slt i32 %32, %36
  br i1 %37, label %38, label %43

38:                                               ; preds = %31
  %39 = load i32, i32* %4, align 4
  %40 = sext i32 %39 to i64
  %41 = getelementptr inbounds [200 x i32], [200 x i32]* %5, i64 0, i64 %40
  %42 = load i32, i32* %41, align 4
  store i32 %42, i32* %2, align 4
  br label %43

43:                                               ; preds = %38, %31
  br label %44

44:                                               ; preds = %43
  %45 = load i32, i32* %4, align 4
  %46 = add nsw i32 %45, 1
  store i32 %46, i32* %4, align 4
  br label %27

47:                                               ; preds = %27
  store i32 1, i32* %6, align 4
  br label %48

48:                                               ; preds = %64, %47
  %49 = load i32, i32* %6, align 4
  %50 = load i32, i32* %3, align 4
  %51 = icmp slt i32 %49, %50
  br i1 %51, label %52, label %67

52:                                               ; preds = %48
  %53 = load i32, i32* %6, align 4
  %54 = sext i32 %53 to i64
  %55 = getelementptr inbounds [200 x i32], [200 x i32]* %5, i64 0, i64 %54
  %56 = load i32, i32* %55, align 4
  %57 = load i32, i32* %2, align 4
  %58 = icmp eq i32 %56, %57
  br i1 %58, label %59, label %63

59:                                               ; preds = %52
  %60 = load i32, i32* %6, align 4
  %61 = sext i32 %60 to i64
  %62 = getelementptr inbounds [200 x i32], [200 x i32]* %5, i64 0, i64 %61
  store i32 -10000, i32* %62, align 4
  br label %63

63:                                               ; preds = %59, %52
  br label %64

64:                                               ; preds = %63
  %65 = load i32, i32* %6, align 4
  %66 = add nsw i32 %65, 1
  store i32 %66, i32* %6, align 4
  br label %48

67:                                               ; preds = %48
  store i32 1, i32* %4, align 4
  br label %68

68:                                               ; preds = %85, %67
  %69 = load i32, i32* %4, align 4
  %70 = load i32, i32* %3, align 4
  %71 = icmp slt i32 %69, %70
  br i1 %71, label %72, label %88

72:                                               ; preds = %68
  %73 = load i32, i32* %7, align 4
  %74 = load i32, i32* %4, align 4
  %75 = sext i32 %74 to i64
  %76 = getelementptr inbounds [200 x i32], [200 x i32]* %5, i64 0, i64 %75
  %77 = load i32, i32* %76, align 4
  %78 = icmp slt i32 %73, %77
  br i1 %78, label %79, label %84

79:                                               ; preds = %72
  %80 = load i32, i32* %4, align 4
  %81 = sext i32 %80 to i64
  %82 = getelementptr inbounds [200 x i32], [200 x i32]* %5, i64 0, i64 %81
  %83 = load i32, i32* %82, align 4
  store i32 %83, i32* %7, align 4
  br label %84

84:                                               ; preds = %79, %72
  br label %85

85:                                               ; preds = %84
  %86 = load i32, i32* %4, align 4
  %87 = add nsw i32 %86, 1
  store i32 %87, i32* %4, align 4
  br label %68

88:                                               ; preds = %68
  %89 = load i32, i32* %7, align 4
  %90 = icmp eq i32 %89, -10000
  br i1 %90, label %91, label %93

91:                                               ; preds = %88
  %92 = call i32 (i8*, ...) @printf(i8* getelementptr inbounds ([3 x i8], [3 x i8]* @.str.1, i64 0, i64 0))
  br label %96

93:                                               ; preds = %88
  %94 = load i32, i32* %7, align 4
  %95 = call i32 (i8*, ...) @printf(i8* getelementptr inbounds ([3 x i8], [3 x i8]* @.str.2, i64 0, i64 0), i32 %94)
  br label %96

96:                                               ; preds = %93, %91
  br label %97

97:                                               ; preds = %96, %24
  %98 = load i32, i32* %1, align 4
  ret i32 %98
}

declare dso_local i32 @__isoc99_scanf(i8*, ...) #1

declare dso_local i32 @printf(i8*, ...) #1


!llvm.module.flags = !{!0}
!llvm.ident = !{!1}

!0 = !{i32 1, !"wchar_size", i32 4}
!1 = !{!"clang version 10.0.0-4ubuntu1 "}
